
_interrupt:

;Tache_IT_Mtrx.c,83 :: 		void interrupt()
;Tache_IT_Mtrx.c,85 :: 		tmr3h = VAL_INIT_TMR3_H;                                  //(1)
	MOVLW       255
	MOVWF       TMR3H+0 
;Tache_IT_Mtrx.c,86 :: 		tmr3l = VAL_INIT_TMR3_L;
	MOVLW       226
	MOVWF       TMR3L+0 
;Tache_IT_Mtrx.c,87 :: 		if(NumLigne>=VoletGauche && NumLigne<=VoletDroit)         //(2)
	MOVF        _VoletGauche+0, 0 
	SUBWF       _NumLigne+0, 0 
	BTFSS       STATUS+0, 0 
	GOTO        L_interrupt2
	MOVF        _NumLigne+0, 0 
	SUBWF       _VoletDroit+0, 0 
	BTFSS       STATUS+0, 0 
	GOTO        L_interrupt2
L__interrupt5:
;Tache_IT_Mtrx.c,89 :: 		portc.BIT_OE_MEM = 0;
	BCF         PORTC+0, 6 
;Tache_IT_Mtrx.c,91 :: 		portc.BIT_CLK_MTRX = 1;
	BSF         PORTC+0, 7 
;Tache_IT_Mtrx.c,92 :: 		portc.BIT_CLK_MEM = 0;
	BCF         PORTC+0, 1 
;Tache_IT_Mtrx.c,93 :: 		portc.BIT_CLK_MTRX = 0;
	BCF         PORTC+0, 7 
;Tache_IT_Mtrx.c,94 :: 		portc.BIT_CLK_MEM = 1;
	BSF         PORTC+0, 1 
;Tache_IT_Mtrx.c,95 :: 		}
	GOTO        L_interrupt3
L_interrupt2:
;Tache_IT_Mtrx.c,98 :: 		portc.BIT_OE_MEM = 1;
	BSF         PORTC+0, 6 
;Tache_IT_Mtrx.c,99 :: 		portc.BIT_CLK_MTRX = 1;
	BSF         PORTC+0, 7 
;Tache_IT_Mtrx.c,100 :: 		portc.BIT_CLK_MEM = 0;
	BCF         PORTC+0, 1 
;Tache_IT_Mtrx.c,101 :: 		portc.BIT_CLK_MTRX = 0;
	BCF         PORTC+0, 7 
;Tache_IT_Mtrx.c,102 :: 		portc.BIT_CLK_MEM = 1;
	BSF         PORTC+0, 1 
;Tache_IT_Mtrx.c,103 :: 		}
L_interrupt3:
;Tache_IT_Mtrx.c,104 :: 		NumLigne = Numligne++;                                    //(3)
	INCF        _NumLigne+0, 1 
;Tache_IT_Mtrx.c,105 :: 		if(NumLigne > 127)                                        //(4)
	MOVF        _NumLigne+0, 0 
	SUBLW       127
	BTFSC       STATUS+0, 0 
	GOTO        L_interrupt4
;Tache_IT_Mtrx.c,107 :: 		portc.BIT_LATCH_MTRX = 1;
	BSF         PORTC+0, 0 
;Tache_IT_Mtrx.c,108 :: 		NumLigne = 0;
	CLRF        _NumLigne+0 
;Tache_IT_Mtrx.c,109 :: 		NumColonne = NumColonne++;
	INCF        _NumColonne+0, 1 
;Tache_IT_Mtrx.c,110 :: 		porta = NumColonne;
	MOVF        _NumColonne+0, 0 
	MOVWF       PORTA+0 
;Tache_IT_Mtrx.c,111 :: 		portc.BIT_LATCH_MTRX = 0;
	BCF         PORTC+0, 0 
;Tache_IT_Mtrx.c,112 :: 		}
L_interrupt4:
;Tache_IT_Mtrx.c,113 :: 		PIR2.TMR3IF = 0;                                          //(5)
	BCF         PIR2+0, 1 
;Tache_IT_Mtrx.c,114 :: 		}
L_end_interrupt:
L__interrupt7:
	RETFIE      1
; end of _interrupt

_InitPeriphITMatrix:

;Tache_IT_Mtrx.c,139 :: 		void InitPeriphITMatrix()
;Tache_IT_Mtrx.c,143 :: 		tmr3h = VAL_INIT_TMR3_H;
	MOVLW       255
	MOVWF       TMR3H+0 
;Tache_IT_Mtrx.c,144 :: 		tmr3l = VAL_INIT_TMR3_L;
	MOVLW       226
	MOVWF       TMR3L+0 
;Tache_IT_Mtrx.c,145 :: 		t3con = VAL_CONF_T3CON_EL;
	MOVLW       1
	MOVWF       T3CON+0 
;Tache_IT_Mtrx.c,148 :: 		ipr2.TMR3IP = 1;                   //p86 registre 8-8  00000010 : Priorité Haute d'intéruption de débordement TMR3
	BSF         IPR2+0, 1 
;Tache_IT_Mtrx.c,149 :: 		pie2.TMR3IE = 1;                   //p89 registre 8-11 00000010 : Active l'intéruption de débordement TMR3
	BSF         PIE2+0, 1 
;Tache_IT_Mtrx.c,151 :: 		}
L_end_InitPeriphITMatrix:
	RETURN      0
; end of _InitPeriphITMatrix
