
_InterruptSpgGesTimeOut:

;Tache_ges_time_out.c,69 :: 		void InterruptSpgGesTimeOut()
;Tache_ges_time_out.c,72 :: 		tmr1h = VAL_INIT_TMR1_H;
	MOVLW       251
	MOVWF       TMR1H+0 
;Tache_ges_time_out.c,73 :: 		tmr1l = VAL_INIT_TMR1_L;
	MOVLW       30
	MOVWF       TMR1L+0 
;Tache_ges_time_out.c,75 :: 		TempoVolet++;
	INCF        _TempoVolet+0, 1 
;Tache_ges_time_out.c,76 :: 		if (TempoVolet == AppelImg.TempoVolet)
	MOVF        _TempoVolet+0, 0 
	XORWF       _AppelImg+4, 0 
	BTFSS       STATUS+0, 2 
	GOTO        L_InterruptSpgGesTimeOut0
;Tache_ges_time_out.c,78 :: 		TempoVolet = 0;
	CLRF        _TempoVolet+0 
;Tache_ges_time_out.c,80 :: 		switch (AppelImg.TypeVolet)
	GOTO        L_InterruptSpgGesTimeOut1
;Tache_ges_time_out.c,83 :: 		case V_GAUCHE_O:
L_InterruptSpgGesTimeOut3:
;Tache_ges_time_out.c,85 :: 		if (DebutVolet == VRAI)
	MOVF        _DebutVolet+0, 0 
	XORLW       1
	BTFSS       STATUS+0, 2 
	GOTO        L_InterruptSpgGesTimeOut4
;Tache_ges_time_out.c,88 :: 		VoletGauche = G_INIT_VG_O;
	MOVLW       127
	MOVWF       _VoletGauche+0 
;Tache_ges_time_out.c,89 :: 		VoletDroit  = G_INIT_VD_O;
	MOVLW       126
	MOVWF       _VoletDroit+0 
;Tache_ges_time_out.c,90 :: 		DebutVolet = FAUX;
	CLRF        _DebutVolet+0 
;Tache_ges_time_out.c,91 :: 		}
	GOTO        L_InterruptSpgGesTimeOut5
L_InterruptSpgGesTimeOut4:
;Tache_ges_time_out.c,95 :: 		VoletGauche--;
	DECF        _VoletGauche+0, 1 
;Tache_ges_time_out.c,96 :: 		if (VoletGauche == G_INIT_VG_F)
	MOVF        _VoletGauche+0, 0 
	XORLW       0
	BTFSS       STATUS+0, 2 
	GOTO        L_InterruptSpgGesTimeOut6
;Tache_ges_time_out.c,98 :: 		DebutVolet = VRAI;
	MOVLW       1
	MOVWF       _DebutVolet+0 
;Tache_ges_time_out.c,99 :: 		pie1.TMR1IE = 0;
	BCF         PIE1+0, 0 
;Tache_ges_time_out.c,100 :: 		}
L_InterruptSpgGesTimeOut6:
;Tache_ges_time_out.c,101 :: 		}
L_InterruptSpgGesTimeOut5:
;Tache_ges_time_out.c,102 :: 		break;
	GOTO        L_InterruptSpgGesTimeOut2
;Tache_ges_time_out.c,105 :: 		case V_GAUCHE_F:
L_InterruptSpgGesTimeOut7:
;Tache_ges_time_out.c,107 :: 		if (DebutVolet == VRAI)
	MOVF        _DebutVolet+0, 0 
	XORLW       1
	BTFSS       STATUS+0, 2 
	GOTO        L_InterruptSpgGesTimeOut8
;Tache_ges_time_out.c,110 :: 		VoletGauche = G_INIT_VG_F;
	CLRF        _VoletGauche+0 
;Tache_ges_time_out.c,111 :: 		VoletDroit  = G_INIT_VD_F;
	MOVLW       126
	MOVWF       _VoletDroit+0 
;Tache_ges_time_out.c,112 :: 		DebutVolet = FAUX;
	CLRF        _DebutVolet+0 
;Tache_ges_time_out.c,113 :: 		}
	GOTO        L_InterruptSpgGesTimeOut9
L_InterruptSpgGesTimeOut8:
;Tache_ges_time_out.c,117 :: 		VoletGauche++;
	INCF        _VoletGauche+0, 1 
;Tache_ges_time_out.c,118 :: 		if (VoletGauche == G_INIT_VG_O)
	MOVF        _VoletGauche+0, 0 
	XORLW       127
	BTFSS       STATUS+0, 2 
	GOTO        L_InterruptSpgGesTimeOut10
;Tache_ges_time_out.c,120 :: 		DebutVolet = VRAI;
	MOVLW       1
	MOVWF       _DebutVolet+0 
;Tache_ges_time_out.c,121 :: 		pie1.TMR1IE = 0;
	BCF         PIE1+0, 0 
;Tache_ges_time_out.c,122 :: 		}
L_InterruptSpgGesTimeOut10:
;Tache_ges_time_out.c,123 :: 		}
L_InterruptSpgGesTimeOut9:
;Tache_ges_time_out.c,124 :: 		break;
	GOTO        L_InterruptSpgGesTimeOut2
;Tache_ges_time_out.c,127 :: 		case V_DROITE_O:
L_InterruptSpgGesTimeOut11:
;Tache_ges_time_out.c,129 :: 		if (DebutVolet == VRAI)
	MOVF        _DebutVolet+0, 0 
	XORLW       1
	BTFSS       STATUS+0, 2 
	GOTO        L_InterruptSpgGesTimeOut12
;Tache_ges_time_out.c,132 :: 		VoletGauche = D_INIT_VG_O;
	MOVLW       127
	MOVWF       _VoletGauche+0 
;Tache_ges_time_out.c,133 :: 		VoletDroit  = D_INIT_VD_O;
	CLRF        _VoletDroit+0 
;Tache_ges_time_out.c,134 :: 		DebutVolet = FAUX;
	CLRF        _DebutVolet+0 
;Tache_ges_time_out.c,135 :: 		}
	GOTO        L_InterruptSpgGesTimeOut13
L_InterruptSpgGesTimeOut12:
;Tache_ges_time_out.c,139 :: 		if (VoletGauche == D_INIT_VG_O)    //cas particulier ouverture volet droit
	MOVF        _VoletGauche+0, 0 
	XORLW       127
	BTFSS       STATUS+0, 2 
	GOTO        L_InterruptSpgGesTimeOut14
;Tache_ges_time_out.c,140 :: 		VoletGauche = D_INIT_VG_F;     //
	CLRF        _VoletGauche+0 
	GOTO        L_InterruptSpgGesTimeOut15
L_InterruptSpgGesTimeOut14:
;Tache_ges_time_out.c,142 :: 		VoletDroit++;
	INCF        _VoletDroit+0, 1 
L_InterruptSpgGesTimeOut15:
;Tache_ges_time_out.c,143 :: 		if (VoletDroit == D_INIT_VD_F)
	MOVF        _VoletDroit+0, 0 
	XORLW       126
	BTFSS       STATUS+0, 2 
	GOTO        L_InterruptSpgGesTimeOut16
;Tache_ges_time_out.c,145 :: 		DebutVolet = VRAI;
	MOVLW       1
	MOVWF       _DebutVolet+0 
;Tache_ges_time_out.c,146 :: 		pie1.TMR1IE = 0;
	BCF         PIE1+0, 0 
;Tache_ges_time_out.c,147 :: 		}
L_InterruptSpgGesTimeOut16:
;Tache_ges_time_out.c,148 :: 		}
L_InterruptSpgGesTimeOut13:
;Tache_ges_time_out.c,149 :: 		break;
	GOTO        L_InterruptSpgGesTimeOut2
;Tache_ges_time_out.c,152 :: 		case V_DROITE_F:
L_InterruptSpgGesTimeOut17:
;Tache_ges_time_out.c,154 :: 		if (DebutVolet == VRAI)
	MOVF        _DebutVolet+0, 0 
	XORLW       1
	BTFSS       STATUS+0, 2 
	GOTO        L_InterruptSpgGesTimeOut18
;Tache_ges_time_out.c,157 :: 		VoletGauche = D_INIT_VG_F;
	CLRF        _VoletGauche+0 
;Tache_ges_time_out.c,158 :: 		VoletDroit  = D_INIT_VD_F;
	MOVLW       126
	MOVWF       _VoletDroit+0 
;Tache_ges_time_out.c,159 :: 		DebutVolet = FAUX;
	CLRF        _DebutVolet+0 
;Tache_ges_time_out.c,160 :: 		}
	GOTO        L_InterruptSpgGesTimeOut19
L_InterruptSpgGesTimeOut18:
;Tache_ges_time_out.c,164 :: 		if (VoletGauche == D_INIT_VG_O)
	MOVF        _VoletGauche+0, 0 
	XORLW       127
	BTFSS       STATUS+0, 2 
	GOTO        L_InterruptSpgGesTimeOut20
;Tache_ges_time_out.c,166 :: 		DebutVolet = VRAI;
	MOVLW       1
	MOVWF       _DebutVolet+0 
;Tache_ges_time_out.c,167 :: 		pie1.TMR1IE = 0;
	BCF         PIE1+0, 0 
;Tache_ges_time_out.c,168 :: 		}
L_InterruptSpgGesTimeOut20:
;Tache_ges_time_out.c,169 :: 		if (VoletDroit == D_INIT_VD_O)
	MOVF        _VoletDroit+0, 0 
	XORLW       0
	BTFSS       STATUS+0, 2 
	GOTO        L_InterruptSpgGesTimeOut21
;Tache_ges_time_out.c,170 :: 		VoletGauche = D_INIT_VG_O;
	MOVLW       127
	MOVWF       _VoletGauche+0 
L_InterruptSpgGesTimeOut21:
;Tache_ges_time_out.c,171 :: 		if (VoletGauche == D_INIT_VG_F)
	MOVF        _VoletGauche+0, 0 
	XORLW       0
	BTFSS       STATUS+0, 2 
	GOTO        L_InterruptSpgGesTimeOut22
;Tache_ges_time_out.c,172 :: 		VoletDroit--;
	DECF        _VoletDroit+0, 1 
L_InterruptSpgGesTimeOut22:
;Tache_ges_time_out.c,173 :: 		}
L_InterruptSpgGesTimeOut19:
;Tache_ges_time_out.c,174 :: 		break;
	GOTO        L_InterruptSpgGesTimeOut2
;Tache_ges_time_out.c,177 :: 		case V_CENTRE_O:
L_InterruptSpgGesTimeOut23:
;Tache_ges_time_out.c,179 :: 		if (DebutVolet == VRAI)
	MOVF        _DebutVolet+0, 0 
	XORLW       1
	BTFSS       STATUS+0, 2 
	GOTO        L_InterruptSpgGesTimeOut24
;Tache_ges_time_out.c,182 :: 		VoletGauche = C_INIT_VG_O;
	MOVLW       64
	MOVWF       _VoletGauche+0 
;Tache_ges_time_out.c,183 :: 		VoletDroit  = C_INIT_VD_O;
	MOVLW       63
	MOVWF       _VoletDroit+0 
;Tache_ges_time_out.c,184 :: 		DebutVolet = FAUX;
	CLRF        _DebutVolet+0 
;Tache_ges_time_out.c,185 :: 		}
	GOTO        L_InterruptSpgGesTimeOut25
L_InterruptSpgGesTimeOut24:
;Tache_ges_time_out.c,189 :: 		VoletGauche--;
	DECF        _VoletGauche+0, 1 
;Tache_ges_time_out.c,190 :: 		VoletDroit++;
	INCF        _VoletDroit+0, 1 
;Tache_ges_time_out.c,191 :: 		if (VoletGauche == C_INIT_VG_F)
	MOVF        _VoletGauche+0, 0 
	XORLW       0
	BTFSS       STATUS+0, 2 
	GOTO        L_InterruptSpgGesTimeOut26
;Tache_ges_time_out.c,193 :: 		DebutVolet = VRAI;
	MOVLW       1
	MOVWF       _DebutVolet+0 
;Tache_ges_time_out.c,194 :: 		pie1.TMR1IE = 0;
	BCF         PIE1+0, 0 
;Tache_ges_time_out.c,195 :: 		}
L_InterruptSpgGesTimeOut26:
;Tache_ges_time_out.c,196 :: 		}
L_InterruptSpgGesTimeOut25:
;Tache_ges_time_out.c,197 :: 		break;
	GOTO        L_InterruptSpgGesTimeOut2
;Tache_ges_time_out.c,200 :: 		case V_CENTRE_F:
L_InterruptSpgGesTimeOut27:
;Tache_ges_time_out.c,202 :: 		if (DebutVolet == VRAI)
	MOVF        _DebutVolet+0, 0 
	XORLW       1
	BTFSS       STATUS+0, 2 
	GOTO        L_InterruptSpgGesTimeOut28
;Tache_ges_time_out.c,205 :: 		VoletGauche = C_INIT_VG_F;
	CLRF        _VoletGauche+0 
;Tache_ges_time_out.c,206 :: 		VoletDroit  = C_INIT_VD_F;
	MOVLW       126
	MOVWF       _VoletDroit+0 
;Tache_ges_time_out.c,207 :: 		DebutVolet = FAUX;
	CLRF        _DebutVolet+0 
;Tache_ges_time_out.c,208 :: 		}
	GOTO        L_InterruptSpgGesTimeOut29
L_InterruptSpgGesTimeOut28:
;Tache_ges_time_out.c,212 :: 		VoletGauche++;
	INCF        _VoletGauche+0, 1 
;Tache_ges_time_out.c,213 :: 		VoletDroit--;
	DECF        _VoletDroit+0, 1 
;Tache_ges_time_out.c,214 :: 		if (VoletGauche == C_INIT_VG_O)
	MOVF        _VoletGauche+0, 0 
	XORLW       64
	BTFSS       STATUS+0, 2 
	GOTO        L_InterruptSpgGesTimeOut30
;Tache_ges_time_out.c,216 :: 		DebutVolet = VRAI;
	MOVLW       1
	MOVWF       _DebutVolet+0 
;Tache_ges_time_out.c,217 :: 		pie1.TMR1IE = 0;
	BCF         PIE1+0, 0 
;Tache_ges_time_out.c,218 :: 		}
L_InterruptSpgGesTimeOut30:
;Tache_ges_time_out.c,219 :: 		}
L_InterruptSpgGesTimeOut29:
;Tache_ges_time_out.c,220 :: 		break;
	GOTO        L_InterruptSpgGesTimeOut2
;Tache_ges_time_out.c,222 :: 		}
L_InterruptSpgGesTimeOut1:
	MOVF        _AppelImg+3, 0 
	XORLW       1
	BTFSC       STATUS+0, 2 
	GOTO        L_InterruptSpgGesTimeOut3
	MOVF        _AppelImg+3, 0 
	XORLW       4
	BTFSC       STATUS+0, 2 
	GOTO        L_InterruptSpgGesTimeOut7
	MOVF        _AppelImg+3, 0 
	XORLW       2
	BTFSC       STATUS+0, 2 
	GOTO        L_InterruptSpgGesTimeOut11
	MOVF        _AppelImg+3, 0 
	XORLW       5
	BTFSC       STATUS+0, 2 
	GOTO        L_InterruptSpgGesTimeOut17
	MOVF        _AppelImg+3, 0 
	XORLW       3
	BTFSC       STATUS+0, 2 
	GOTO        L_InterruptSpgGesTimeOut23
	MOVF        _AppelImg+3, 0 
	XORLW       6
	BTFSC       STATUS+0, 2 
	GOTO        L_InterruptSpgGesTimeOut27
L_InterruptSpgGesTimeOut2:
;Tache_ges_time_out.c,223 :: 		}
L_InterruptSpgGesTimeOut0:
;Tache_ges_time_out.c,224 :: 		}
L_end_InterruptSpgGesTimeOut:
	RETURN      0
; end of _InterruptSpgGesTimeOut

_InitPeriphGesTimeOut:

;Tache_ges_time_out.c,246 :: 		void InitPeriphGesTimeOut()
;Tache_ges_time_out.c,250 :: 		tmr1h = VAL_INIT_TMR1_H;
	MOVLW       251
	MOVWF       TMR1H+0 
;Tache_ges_time_out.c,251 :: 		tmr1l = VAL_INIT_TMR1_L;
	MOVLW       30
	MOVWF       TMR1L+0 
;Tache_ges_time_out.c,252 :: 		t1con = VAL_CONF_T1CON;
	MOVLW       49
	MOVWF       T1CON+0 
;Tache_ges_time_out.c,255 :: 		ipr1.TMR1IP = 0;     //basse priorité
	BCF         IPR1+0, 0 
;Tache_ges_time_out.c,256 :: 		pie1.TMR1IE = 0;     //IT masquée au démarrage
	BCF         PIE1+0, 0 
;Tache_ges_time_out.c,258 :: 		}
L_end_InitPeriphGesTimeOut:
	RETURN      0
; end of _InitPeriphGesTimeOut

_IniTVarGlGesTimeOut:

;Tache_ges_time_out.c,273 :: 		void IniTVarGlGesTimeOut()
;Tache_ges_time_out.c,277 :: 		}
L_end_IniTVarGlGesTimeOut:
	RETURN      0
; end of _IniTVarGlGesTimeOut
